; Function Attrs: mustprogress nofree norecurse nosync nounwind willreturn memory(read, inaccessiblemem: none) uwtable
define ptr @EVP_PKEY_get0_description(ptr noundef readonly captures(none) %0) local_unnamed_addr #9 {
  %2 = getelementptr inbounds nuw i8, ptr %0, i64 32
  %3 = load ptr, ptr %2, align 8, !tbaa !39
  %.not = icmp eq ptr %3, null
  br i1 %.not, label %4, label %7

4:                                                ; preds = %1
  %5 = getelementptr inbounds nuw i8, ptr %0, i64 104
  %6 = load ptr, ptr %5, align 8, !tbaa !33
  %.not11 = icmp eq ptr %6, null
  br i1 %.not11, label %19, label %7

7:                                                ; preds = %4, %1
  %8 = getelementptr inbounds nuw i8, ptr %0, i64 96
  %9 = load ptr, ptr %8, align 8, !tbaa !30
  %.not12 = icmp eq ptr %9, null
  br i1 %.not12, label %13, label %10

10:                                               ; preds = %7
  %11 = getelementptr inbounds nuw i8, ptr %9, i64 24
  %12 = load ptr, ptr %11, align 8, !tbaa !103
  %.not13 = icmp eq ptr %12, null
  br i1 %.not13, label %13, label %19

13:                                               ; preds = %10, %7
  %14 = getelementptr inbounds nuw i8, ptr %0, i64 8
  %15 = load ptr, ptr %14, align 8, !tbaa !20
  %.not14 = icmp eq ptr %15, null
  br i1 %.not14, label %19, label %16

16:                                               ; preds = %13
  %17 = getelementptr inbounds nuw i8, ptr %15, i64 24
  %18 = load ptr, ptr %17, align 8, !tbaa !104
  br label %19

19:                                               ; preds = %13, %10, %4, %16
  %.0 = phi ptr [ %18, %16 ], [ null, %4 ], [ %12, %10 ], [ null, %13 ]
  ret ptr %.0
}